; Function Attrs: mustprogress uwtable
define hidden void @_ZNK3ue225RoseInstrCheckShufti64x165writeEPvRNS_14RoseEngineBlobERKSt13unordered_mapIPKNS_15RoseInstructionEjSt4hashIS7_ESt8equal_toIS7_ESaISt4pairIKS7_jEEE(ptr noundef nonnull align 8 dereferenceable(416) %0, ptr noundef writeonly captures(none) initializes((0, 408)) %1, ptr nonnull readnone align 8 captures(none) %2, ptr noundef nonnull readonly align 8 captures(none) dereferenceable(56) %3) unnamed_addr #5 align 2 personality ptr @__gxx_personality_v0 {
  tail call void @llvm.memset.p0.i64(ptr noundef nonnull align 8 dereferenceable(408) %1, i8 0, i64 408, i1 false)
  store i8 68, ptr %1, align 8
  %5 = getelementptr inbounds nuw i8, ptr %0, i64 8
  %6 = getelementptr inbounds nuw i8, ptr %1, i64 1
  tail call void @llvm.memmove.p0.p0.i64(ptr noundef nonnull align 1 dereferenceable(64) %6, ptr noundef nonnull align 8 dereferenceable(64) %5, i64 64, i1 false)
  %7 = getelementptr inbounds nuw i8, ptr %0, i64 72
  %8 = getelementptr inbounds nuw i8, ptr %1, i64 65
  tail call void @llvm.memmove.p0.p0.i64(ptr noundef nonnull align 1 dereferenceable(64) %8, ptr noundef nonnull align 8 dereferenceable(64) %7, i64 64, i1 false)
  %9 = getelementptr inbounds nuw i8, ptr %0, i64 136
  %10 = getelementptr inbounds nuw i8, ptr %1, i64 129
  tail call void @llvm.memmove.p0.p0.i64(ptr noundef nonnull align 1 dereferenceable(64) %10, ptr noundef nonnull align 8 dereferenceable(64) %9, i64 64, i1 false)
  %11 = getelementptr inbounds nuw i8, ptr %0, i64 200
  %12 = getelementptr inbounds nuw i8, ptr %1, i64 193
  tail call void @llvm.memmove.p0.p0.i64(ptr noundef nonnull align 1 dereferenceable(64) %12, ptr noundef nonnull align 8 dereferenceable(64) %11, i64 64, i1 false)
  %13 = getelementptr inbounds nuw i8, ptr %0, i64 264
  %14 = getelementptr inbounds nuw i8, ptr %1, i64 257
  tail call void @llvm.memmove.p0.p0.i64(ptr noundef nonnull align 1 dereferenceable(64) %14, ptr noundef nonnull align 8 dereferenceable(64) %13, i64 64, i1 false)
  %15 = getelementptr inbounds nuw i8, ptr %0, i64 328
  %16 = getelementptr inbounds nuw i8, ptr %1, i64 321
  tail call void @llvm.memmove.p0.p0.i64(ptr noundef nonnull align 1 dereferenceable(64) %16, ptr noundef nonnull align 8 dereferenceable(64) %15, i64 64, i1 false)
  %17 = getelementptr inbounds nuw i8, ptr %0, i64 392
  %18 = load i64, ptr %17, align 8
  %19 = getelementptr inbounds nuw i8, ptr %1, i64 392
  store i64 %18, ptr %19, align 8
  %20 = getelementptr inbounds nuw i8, ptr %0, i64 400
  %21 = load i32, ptr %20, align 8
  %22 = getelementptr inbounds nuw i8, ptr %1, i64 400
  store i32 %21, ptr %22, align 8
  %23 = getelementptr inbounds nuw i8, ptr %0, i64 408
  %24 = load ptr, ptr %23, align 8
  %25 = tail call fastcc noundef i32 @_ZN3ue2L9calc_jumpERKSt13unordered_mapIPKNS_15RoseInstructionEjSt4hashIS3_ESt8equal_toIS3_ESaISt4pairIKS3_jEEES3_S3_(ptr noundef nonnull align 8 dereferenceable(56) %3, ptr noundef %0, ptr noundef %24)
  %26 = getelementptr inbounds nuw i8, ptr %1, i64 404
  store i32 %25, ptr %26, align 4
  ret void
}